; Function Attrs: mustprogress uwtable
define void @_ZN18duckdb_fastpforlib8internal14__fastunpack44EPKjPm(ptr noalias noundef %0, ptr noalias noundef initializes((0, 64)) %1) local_unnamed_addr #5 {
  %3 = alloca ptr, align 8
  tail call void @llvm.experimental.noalias.scope.decl(metadata !8164)
  tail call void @llvm.experimental.noalias.scope.decl(metadata !8167)
  %4 = load i32, ptr %0, align 4, !tbaa !7, !noalias !8170
  %5 = zext i32 %4 to i64
  %6 = getelementptr inbounds nuw i8, ptr %0, i64 4
  %7 = load i32, ptr %6, align 4, !tbaa !7, !noalias !8170
  %8 = and i32 %7, 4095
  %9 = zext nneg i32 %8 to i64
  %10 = shl nuw nsw i64 %9, 32
  %11 = or disjoint i64 %10, %5
  store i64 %11, ptr %1, align 8, !tbaa !9, !alias.scope !8170
  tail call void @llvm.experimental.noalias.scope.decl(metadata !8171)
  %12 = getelementptr inbounds nuw i8, ptr %1, i64 8
  tail call void @llvm.experimental.noalias.scope.decl(metadata !8174)
  %13 = lshr i32 %7, 12
  %14 = zext nneg i32 %13 to i64
  %15 = getelementptr inbounds nuw i8, ptr %0, i64 8
  %16 = load i32, ptr %15, align 4, !tbaa !7, !noalias !8177
  %17 = and i32 %16, 16777215
  %18 = zext nneg i32 %17 to i64
  %19 = shl nuw nsw i64 %18, 20
  %20 = or disjoint i64 %19, %14
  store i64 %20, ptr %12, align 8, !tbaa !9, !alias.scope !8177
  tail call void @llvm.experimental.noalias.scope.decl(metadata !8178)
  %21 = getelementptr inbounds nuw i8, ptr %1, i64 16
  tail call void @llvm.experimental.noalias.scope.decl(metadata !8181)
  %22 = lshr i32 %16, 24
  %23 = zext nneg i32 %22 to i64
  %24 = getelementptr inbounds nuw i8, ptr %0, i64 12
  %25 = load i32, ptr %24, align 4, !tbaa !7, !noalias !8184
  %26 = zext i32 %25 to i64
  %27 = shl nuw nsw i64 %26, 8
  %28 = or disjoint i64 %27, %23
  %29 = getelementptr inbounds nuw i8, ptr %0, i64 16
  %30 = load i32, ptr %29, align 4, !tbaa !7, !noalias !8184
  %31 = and i32 %30, 15
  %32 = zext nneg i32 %31 to i64
  %33 = shl nuw nsw i64 %32, 40
  %34 = or disjoint i64 %33, %28
  store i64 %34, ptr %21, align 8, !tbaa !9, !alias.scope !8184
  tail call void @llvm.experimental.noalias.scope.decl(metadata !8185)
  %35 = getelementptr inbounds nuw i8, ptr %1, i64 24
  tail call void @llvm.experimental.noalias.scope.decl(metadata !8188)
  %36 = lshr i32 %30, 4
  %37 = zext nneg i32 %36 to i64
  %38 = getelementptr inbounds nuw i8, ptr %0, i64 20
  %39 = load i32, ptr %38, align 4, !tbaa !7, !noalias !8191
  %40 = and i32 %39, 65535
  %41 = zext nneg i32 %40 to i64
  %42 = shl nuw nsw i64 %41, 28
  %43 = or disjoint i64 %42, %37
  store i64 %43, ptr %35, align 8, !tbaa !9, !alias.scope !8191
  tail call void @llvm.experimental.noalias.scope.decl(metadata !8192)
  %44 = getelementptr inbounds nuw i8, ptr %1, i64 32
  tail call void @llvm.experimental.noalias.scope.decl(metadata !8195)
  %45 = lshr i32 %39, 16
  %46 = zext nneg i32 %45 to i64
  %47 = getelementptr inbounds nuw i8, ptr %0, i64 24
  %48 = load i32, ptr %47, align 4, !tbaa !7, !noalias !8198
  %49 = and i32 %48, 268435455
  %50 = zext nneg i32 %49 to i64
  %51 = shl nuw nsw i64 %50, 16
  %52 = or disjoint i64 %51, %46
  store i64 %52, ptr %44, align 8, !tbaa !9, !alias.scope !8198
  tail call void @llvm.experimental.noalias.scope.decl(metadata !8199)
  %53 = getelementptr inbounds nuw i8, ptr %1, i64 40
  tail call void @llvm.experimental.noalias.scope.decl(metadata !8202)
  %54 = lshr i32 %48, 28
  %55 = zext nneg i32 %54 to i64
  %56 = getelementptr inbounds nuw i8, ptr %0, i64 28
  %57 = load i32, ptr %56, align 4, !tbaa !7, !noalias !8205
  %58 = zext i32 %57 to i64
  %59 = shl nuw nsw i64 %58, 4
  %60 = or disjoint i64 %59, %55
  %61 = getelementptr inbounds nuw i8, ptr %0, i64 32
  %62 = load i32, ptr %61, align 4, !tbaa !7, !noalias !8205
  %63 = and i32 %62, 255
  %64 = zext nneg i32 %63 to i64
  %65 = shl nuw nsw i64 %64, 36
  %66 = or disjoint i64 %65, %60
  store i64 %66, ptr %53, align 8, !tbaa !9, !alias.scope !8205
  tail call void @llvm.experimental.noalias.scope.decl(metadata !8206)
  %67 = getelementptr inbounds nuw i8, ptr %1, i64 48
  tail call void @llvm.experimental.noalias.scope.decl(metadata !8209)
  %68 = lshr i32 %62, 8
  %69 = zext nneg i32 %68 to i64
  %70 = getelementptr inbounds nuw i8, ptr %0, i64 36
  %71 = load i32, ptr %70, align 4, !tbaa !7, !noalias !8212
  %72 = and i32 %71, 1048575
  %73 = zext nneg i32 %72 to i64
  %74 = shl nuw nsw i64 %73, 24
  %75 = or disjoint i64 %74, %69
  store i64 %75, ptr %67, align 8, !tbaa !9, !alias.scope !8212
  tail call void @llvm.experimental.noalias.scope.decl(metadata !8213)
  %76 = getelementptr inbounds nuw i8, ptr %1, i64 56
  tail call void @llvm.experimental.noalias.scope.decl(metadata !8216)
  %77 = lshr i32 %71, 20
  %78 = zext nneg i32 %77 to i64
  %79 = getelementptr inbounds nuw i8, ptr %0, i64 40
  %80 = load i32, ptr %79, align 4, !tbaa !7, !noalias !8219
  %81 = zext i32 %80 to i64
  %82 = shl nuw nsw i64 %81, 12
  %83 = or disjoint i64 %82, %78
  store i64 %83, ptr %76, align 8, !tbaa !9, !alias.scope !8219
  %84 = getelementptr inbounds nuw i8, ptr %0, i64 44
  store ptr %84, ptr %3, align 8, !tbaa !1879, !noalias !8219
  call void @_ZN18duckdb_fastpforlib8internal8UnrollerILt44ELt8EE6UnpackERrPKjPm(ptr noundef nonnull align 8 dereferenceable(8) %3, ptr noundef nonnull %1)
  ret void
}